target datalayout = "e-m:e-p270:32:32-p271:32:32-p272:64:64-i64:64-i128:128-f80:128-n8:16:32:64-S128"
target triple = "x86_64-pc-linux-gnu"

%struct.node_t = type { ptr }

@stderr = external global ptr, align 8
@.str = private unnamed_addr constant [30 x i8] c"Assertion failed: %s (%s:%d)\0A\00", align 1
@.str.1 = private unnamed_addr constant [22 x i8] c"index_ < edgecount ()\00", align 1
@.str.2 = private unnamed_addr constant [110 x i8] c"generated/home/dtcxzyw/WorkSpace/Projects/compilers/llvm-opt-benchmark/bench/libzmq/libzmq/src/radix_tree.cpp\00", align 1

; Function Attrs: mustprogress nounwind uwtable
define noundef i32 @_ZN6node_t13prefix_lengthEv(ptr noundef nonnull align 8 dereferenceable(8) %0) #0 align 2 {
  %2 = alloca ptr, align 8
  %3 = alloca i32, align 4
  store ptr %0, ptr %2, align 8, !tbaa !3
  %4 = load ptr, ptr %2, align 8
  call void @llvm.lifetime.start.p0(i64 4, ptr %3) #17
  %5 = getelementptr inbounds nuw %struct.node_t, ptr %4, i32 0, i32 0
  %6 = load ptr, ptr %5, align 8, !tbaa !10
  %7 = getelementptr inbounds nuw i8, ptr %6, i64 4
  call void @llvm.memcpy.p0.p0.i64(ptr align 4 %3, ptr align 1 %7, i64 4, i1 false)
  %8 = load i32, ptr %3, align 4, !tbaa !12
  call void @llvm.lifetime.end.p0(i64 4, ptr %3) #17
  ret i32 %8
}

; Function Attrs: mustprogress nounwind uwtable
define noundef ptr @_ZN6node_t6prefixEv(ptr noundef nonnull align 8 dereferenceable(8) %0) #0 align 2 {
  %2 = alloca ptr, align 8
  store ptr %0, ptr %2, align 8, !tbaa !3
  %3 = load ptr, ptr %2, align 8
  %4 = getelementptr inbounds nuw %struct.node_t, ptr %3, i32 0, i32 0
  %5 = load ptr, ptr %4, align 8, !tbaa !10
  %6 = getelementptr inbounds nuw i8, ptr %5, i64 12
  ret ptr %6
}

; Function Attrs: mustprogress nounwind uwtable
define noundef ptr @_ZN6node_t13node_pointersEv(ptr noundef nonnull align 8 dereferenceable(8) %0) #0 align 2 {
  %2 = alloca ptr, align 8
  store ptr %0, ptr %2, align 8, !tbaa !3
  %3 = load ptr, ptr %2, align 8
  %4 = call noundef ptr @_ZN6node_t6prefixEv(ptr noundef nonnull align 8 dereferenceable(8) %3)
  %5 = call noundef i32 @_ZN6node_t13prefix_lengthEv(ptr noundef nonnull align 8 dereferenceable(8) %3)
  %6 = zext i32 %5 to i64
  %7 = getelementptr inbounds nuw i8, ptr %4, i64 %6
  %8 = call noundef i32 @_ZN6node_t9edgecountEv(ptr noundef nonnull align 8 dereferenceable(8) %3)
  %9 = zext i32 %8 to i64
  %10 = getelementptr inbounds nuw i8, ptr %7, i64 %9
  ret ptr %10
}

; Function Attrs: mustprogress nounwind uwtable
define noundef ptr @_ZN6node_t11first_bytesEv(ptr noundef nonnull align 8 dereferenceable(8) %0) #0 align 2 {
  %2 = alloca ptr, align 8
  store ptr %0, ptr %2, align 8, !tbaa !3
  %3 = load ptr, ptr %2, align 8
  %4 = call noundef ptr @_ZN6node_t6prefixEv(ptr noundef nonnull align 8 dereferenceable(8) %3)
  %5 = call noundef i32 @_ZN6node_t13prefix_lengthEv(ptr noundef nonnull align 8 dereferenceable(8) %3)
  %6 = zext i32 %5 to i64
  %7 = getelementptr inbounds nuw i8, ptr %4, i64 %6
  ret ptr %7
}

; Function Attrs: mustprogress nounwind uwtable
define noundef i32 @_ZN6node_t9edgecountEv(ptr noundef nonnull align 8 dereferenceable(8) %0) #0 align 2 {
  %2 = alloca ptr, align 8
  %3 = alloca i32, align 4
  store ptr %0, ptr %2, align 8, !tbaa !3
  %4 = load ptr, ptr %2, align 8
  call void @llvm.lifetime.start.p0(i64 4, ptr %3) #17
  %5 = getelementptr inbounds nuw %struct.node_t, ptr %4, i32 0, i32 0
  %6 = load ptr, ptr %5, align 8, !tbaa !10
  %7 = getelementptr inbounds nuw i8, ptr %6, i64 8
  call void @llvm.memcpy.p0.p0.i64(ptr align 4 %3, ptr align 1 %7, i64 4, i1 false)
  %8 = load i32, ptr %3, align 4, !tbaa !12
  call void @llvm.lifetime.end.p0(i64 4, ptr %3) #17
  ret i32 %8
}

; Function Attrs: mustprogress uwtable
define void @_ZN6node_t11set_node_atEmS_(ptr noundef nonnull align 8 dereferenceable(8) %0, i64 noundef %1, ptr %2) #3 align 2 {
  %4 = alloca %struct.node_t, align 8
  %5 = alloca ptr, align 8
  %6 = alloca i64, align 8
  %7 = getelementptr inbounds nuw %struct.node_t, ptr %4, i32 0, i32 0
  store ptr %2, ptr %7, align 8
  store ptr %0, ptr %5, align 8, !tbaa !3
  store i64 %1, ptr %6, align 8, !tbaa !14
  %8 = load ptr, ptr %5, align 8
  br label %9

9:                                                ; preds = %3
  %10 = load i64, ptr %6, align 8, !tbaa !14
  %11 = call noundef i32 @_ZN6node_t9edgecountEv(ptr noundef nonnull align 8 dereferenceable(8) %8)
  %12 = zext i32 %11 to i64
  %13 = icmp ult i64 %10, %12
  %14 = xor i1 %13, true
  %15 = zext i1 %14 to i64
  %16 = call i64 @llvm.expect.i64(i64 %15, i64 0)
  %17 = icmp ne i64 %16, 0
  br i1 %17, label %18, label %23

18:                                               ; preds = %9
  %19 = load ptr, ptr @stderr, align 8, !tbaa !16
  %20 = call i32 (ptr, ptr, ...) @fprintf(ptr noundef %19, ptr noundef @.str, ptr noundef @.str.1, ptr noundef @.str.2, i32 noundef 106) #17
  %21 = load ptr, ptr @stderr, align 8, !tbaa !16
  %22 = call i32 @fflush(ptr noundef %21)
  call void @_ZN3zmq9zmq_abortEPKc(ptr noundef @.str.1)
  br label %23

23:                                               ; preds = %18, %9
  br label %24

24:                                               ; preds = %23
  %25 = call noundef ptr @_ZN6node_t13node_pointersEv(ptr noundef nonnull align 8 dereferenceable(8) %8)
  %26 = load i64, ptr %6, align 8, !tbaa !14
  %27 = mul i64 %26, 8
  %28 = getelementptr inbounds nuw i8, ptr %25, i64 %27
  %29 = getelementptr inbounds nuw %struct.node_t, ptr %4, i32 0, i32 0
  call void @llvm.memcpy.p0.p0.i64(ptr align 1 %28, ptr align 8 %29, i64 8, i1 false)
  ret void
}

; Function Attrs: mustprogress uwtable
define void @_ZN6node_t17set_first_byte_atEmh(ptr noundef nonnull align 8 dereferenceable(8) %0, i64 noundef %1, i8 noundef zeroext %2) #3 align 2 {
  %4 = alloca ptr, align 8
  %5 = alloca i64, align 8
  %6 = alloca i8, align 1
  store ptr %0, ptr %4, align 8, !tbaa !3
  store i64 %1, ptr %5, align 8, !tbaa !14
  store i8 %2, ptr %6, align 1, !tbaa !18
  %7 = load ptr, ptr %4, align 8
  br label %8

8:                                                ; preds = %3
  %9 = load i64, ptr %5, align 8, !tbaa !14
  %10 = call noundef i32 @_ZN6node_t9edgecountEv(ptr noundef nonnull align 8 dereferenceable(8) %7)
  %11 = zext i32 %10 to i64
  %12 = icmp ult i64 %9, %11
  %13 = xor i1 %12, true
  %14 = zext i1 %13 to i64
  %15 = call i64 @llvm.expect.i64(i64 %14, i64 0)
  %16 = icmp ne i64 %15, 0
  br i1 %16, label %17, label %22

17:                                               ; preds = %8
  %18 = load ptr, ptr @stderr, align 8, !tbaa !16
  %19 = call i32 (ptr, ptr, ...) @fprintf(ptr noundef %18, ptr noundef @.str, ptr noundef @.str.1, ptr noundef @.str.2, i32 noundef 81) #17
  %20 = load ptr, ptr @stderr, align 8, !tbaa !16
  %21 = call i32 @fflush(ptr noundef %20)
  call void @_ZN3zmq9zmq_abortEPKc(ptr noundef @.str.1)
  br label %22

22:                                               ; preds = %17, %8
  br label %23

23:                                               ; preds = %22
  %24 = load i8, ptr %6, align 1, !tbaa !18
  %25 = call noundef ptr @_ZN6node_t11first_bytesEv(ptr noundef nonnull align 8 dereferenceable(8) %7)
  %26 = load i64, ptr %5, align 8, !tbaa !14
  %27 = getelementptr inbounds nuw i8, ptr %25, i64 %26
  store i8 %24, ptr %27, align 1, !tbaa !18
  ret void
}

; Function Attrs: mustprogress uwtable
define void @_ZN6node_t11set_edge_atEmhS_(ptr noundef nonnull align 8 dereferenceable(8) %0, i64 noundef %1, i8 noundef zeroext %2, ptr %3) #3 align 2 {
  %5 = alloca %struct.node_t, align 8
  %6 = alloca ptr, align 8
  %7 = alloca i64, align 8
  %8 = alloca i8, align 1
  %9 = alloca %struct.node_t, align 8
  %10 = getelementptr inbounds nuw %struct.node_t, ptr %5, i32 0, i32 0
  store ptr %3, ptr %10, align 8
  store ptr %0, ptr %6, align 8, !tbaa !3
  store i64 %1, ptr %7, align 8, !tbaa !14
  store i8 %2, ptr %8, align 1, !tbaa !18
  %11 = load ptr, ptr %6, align 8
  %12 = load i64, ptr %7, align 8, !tbaa !14
  %13 = load i8, ptr %8, align 1, !tbaa !18
  call void @_ZN6node_t17set_first_byte_atEmh(ptr noundef nonnull align 8 dereferenceable(8) %11, i64 noundef %12, i8 noundef zeroext %13)
  %14 = load i64, ptr %7, align 8, !tbaa !14
  call void @llvm.memcpy.p0.p0.i64(ptr align 8 %9, ptr align 8 %5, i64 8, i1 false), !tbaa.struct !19
  %15 = getelementptr inbounds nuw %struct.node_t, ptr %9, i32 0, i32 0
  %16 = load ptr, ptr %15, align 8
  call void @_ZN6node_t11set_node_atEmS_(ptr noundef nonnull align 8 dereferenceable(8) %11, i64 noundef %14, ptr %16)
  ret void
}