; Function Attrs: mustprogress uwtable
define void @_ZN6node_t11set_edge_atEmhS_(ptr noundef nonnull readonly align 8 captures(none) dereferenceable(8) %0, i64 noundef %1, i8 noundef zeroext %2, ptr %3) local_unnamed_addr #7 align 2 {
  %5 = load ptr, ptr %0, align 8, !tbaa !3
  %6 = getelementptr inbounds nuw i8, ptr %5, i64 8
  %.0.copyload.i.i = load i32, ptr %6, align 1
  %7 = zext i32 %.0.copyload.i.i to i64
  %.not.i = icmp ult i64 %1, %7
  br i1 %.not.i, label %_ZN6node_t17set_first_byte_atEmh.exit, label %8, !prof !9

8:                                                ; preds = %4
  %9 = load ptr, ptr @stderr, align 8, !tbaa !10
  %10 = tail call i32 (ptr, ptr, ...) @fprintf(ptr noundef %9, ptr noundef nonnull @.str, ptr noundef nonnull @.str.1, ptr noundef nonnull @.str.2, i32 noundef 81) #23
  %11 = load ptr, ptr @stderr, align 8, !tbaa !10
  %12 = tail call i32 @fflush(ptr noundef %11)
  tail call void @_ZN3zmq9zmq_abortEPKc(ptr noundef nonnull @.str.1)
  %.pre.i = load ptr, ptr %0, align 8, !tbaa !3
  br label %_ZN6node_t17set_first_byte_atEmh.exit

_ZN6node_t17set_first_byte_atEmh.exit:            ; preds = %4, %8
  %13 = phi ptr [ %5, %4 ], [ %.pre.i, %8 ]
  %14 = getelementptr inbounds nuw i8, ptr %13, i64 12
  %15 = getelementptr inbounds nuw i8, ptr %13, i64 4
  %.0.copyload.i.i.i = load i32, ptr %15, align 1
  %16 = zext i32 %.0.copyload.i.i.i to i64
  %17 = getelementptr inbounds nuw i8, ptr %14, i64 %16
  %18 = getelementptr inbounds nuw i8, ptr %17, i64 %1
  store i8 %2, ptr %18, align 1, !tbaa !12
  %19 = load ptr, ptr %0, align 8, !tbaa !3
  %20 = getelementptr inbounds nuw i8, ptr %19, i64 8
  %.0.copyload.i.i4 = load i32, ptr %20, align 1
  %21 = zext i32 %.0.copyload.i.i4 to i64
  %.not.i5 = icmp ult i64 %1, %21
  br i1 %.not.i5, label %_ZN6node_t11set_node_atEmS_.exit, label %22, !prof !9

22:                                               ; preds = %_ZN6node_t17set_first_byte_atEmh.exit
  %23 = load ptr, ptr @stderr, align 8, !tbaa !10
  %24 = tail call i32 (ptr, ptr, ...) @fprintf(ptr noundef %23, ptr noundef nonnull @.str, ptr noundef nonnull @.str.1, ptr noundef nonnull @.str.2, i32 noundef 106) #23
  %25 = load ptr, ptr @stderr, align 8, !tbaa !10
  %26 = tail call i32 @fflush(ptr noundef %25)
  tail call void @_ZN3zmq9zmq_abortEPKc(ptr noundef nonnull @.str.1)
  %.pre.i6 = load ptr, ptr %0, align 8, !tbaa !3
  %.phi.trans.insert.i = getelementptr inbounds nuw i8, ptr %.pre.i6, i64 8
  %.0.copyload.i1.i.pre.i = load i32, ptr %.phi.trans.insert.i, align 1
  %.pre3.i = zext i32 %.0.copyload.i1.i.pre.i to i64
  br label %_ZN6node_t11set_node_atEmS_.exit

_ZN6node_t11set_node_atEmS_.exit:                 ; preds = %_ZN6node_t17set_first_byte_atEmh.exit, %22
  %.pre-phi.i = phi i64 [ %21, %_ZN6node_t17set_first_byte_atEmh.exit ], [ %.pre3.i, %22 ]
  %27 = phi ptr [ %19, %_ZN6node_t17set_first_byte_atEmh.exit ], [ %.pre.i6, %22 ]
  %28 = getelementptr inbounds nuw i8, ptr %27, i64 12
  %29 = getelementptr inbounds nuw i8, ptr %27, i64 4
  %.0.copyload.i.i.i7 = load i32, ptr %29, align 1
  %30 = zext i32 %.0.copyload.i.i.i7 to i64
  %31 = getelementptr inbounds nuw i8, ptr %28, i64 %30
  %32 = getelementptr inbounds nuw i8, ptr %31, i64 %.pre-phi.i
  %33 = shl i64 %1, 3
  %34 = getelementptr inbounds nuw i8, ptr %32, i64 %33
  store ptr %3, ptr %34, align 1
  ret void
}